target datalayout = "e-m:e-p270:32:32-p271:32:32-p272:64:64-i64:64-i128:128-f80:128-n8:16:32:64-S128"
target triple = "x86_64-pc-linux-gnu"

%class.LogTagSet = type { ptr, i64, [5 x i32], [4 x i8], %class.LogOutputList, %class.LogDecorators, ptr }
%class.LogOutputList = type <{ [6 x ptr], i32, [4 x i8] }>
%class.LogDecorators = type { i32 }
%class.PreservedMarksSet = type { i8, i32, ptr }
%class.RestorePreservedMarksTask = type { %class.WorkerTask.base, ptr, %class.SequentialSubTasksDone, i64 }
%class.WorkerTask.base = type <{ ptr, ptr, i32 }>
%class.SequentialSubTasksDone = type { i32, i32 }
%class.WorkerTask = type <{ ptr, ptr, i32, [4 x i8] }>

@_ZN16LogTagSetMappingILN6LogTag4typeE49ELS1_0ELS1_0ELS1_0ELS1_0ELS1_0EE7_tagsetE = linkonce_odr hidden global %class.LogTagSet zeroinitializer, comdat, align 8
@.str = private unnamed_addr constant [24 x i8] c"Restore Preserved Marks\00", align 1
@_ZTV25RestorePreservedMarksTask = linkonce_odr hidden unnamed_addr constant { [3 x ptr] } { [3 x ptr] [ptr null, ptr null, ptr @_ZN25RestorePreservedMarksTask4workEj] }, comdat, align 8
@_ZTV10WorkerTask = linkonce_odr hidden unnamed_addr constant { [3 x ptr] } { [3 x ptr] [ptr null, ptr null, ptr @__cxa_pure_virtual] }, comdat, align 8
@.str.8 = private unnamed_addr constant [37 x i8] c"Restored %zu marks, occupying %zu %s\00", align 1
@.str.9 = private unnamed_addr constant [2 x i8] c"G\00", align 1
@.str.10 = private unnamed_addr constant [2 x i8] c"M\00", align 1
@.str.11 = private unnamed_addr constant [2 x i8] c"K\00", align 1
@.str.12 = private unnamed_addr constant [2 x i8] c"B\00", align 1

; Function Attrs: mustprogress nounwind uwtable
define linkonce_odr hidden noundef zeroext i1 @_ZNK13LogOutputList8is_levelEN8LogLevel4typeE(ptr noundef nonnull align 8 dereferenceable(52) %0, i32 noundef %1) #1 comdat align 2 {
  %3 = alloca ptr, align 8
  %4 = alloca i32, align 4
  store ptr %0, ptr %3, align 8
  store i32 %1, ptr %4, align 4
  %5 = load ptr, ptr %3, align 8
  %6 = getelementptr inbounds %class.LogOutputList, ptr %5, i32 0, i32 0
  %7 = load i32, ptr %4, align 4
  %8 = zext i32 %7 to i64
  %9 = getelementptr inbounds [6 x ptr], ptr %6, i64 0, i64 %8
  %10 = load volatile ptr, ptr %9, align 8
  %11 = icmp ne ptr %10, null
  ret i1 %11
}

; Function Attrs: mustprogress nounwind uwtable
define linkonce_odr hidden noundef zeroext i1 @_ZNK9LogTagSet8is_levelEN8LogLevel4typeE(ptr noundef nonnull align 8 dereferenceable(112) %0, i32 noundef %1) #1 comdat align 2 {
  %3 = alloca ptr, align 8
  %4 = alloca i32, align 4
  store ptr %0, ptr %3, align 8
  store i32 %1, ptr %4, align 4
  %5 = load ptr, ptr %3, align 8
  %6 = getelementptr inbounds %class.LogTagSet, ptr %5, i32 0, i32 4
  %7 = load i32, ptr %4, align 4
  %8 = call noundef zeroext i1 @_ZNK13LogOutputList8is_levelEN8LogLevel4typeE(ptr noundef nonnull align 8 dereferenceable(52) %6, i32 noundef %7)
  ret i1 %8
}

; Function Attrs: mustprogress nounwind uwtable
define linkonce_odr hidden noundef nonnull align 8 dereferenceable(112) ptr @_ZN16LogTagSetMappingILN6LogTag4typeE49ELS1_0ELS1_0ELS1_0ELS1_0ELS1_0EE6tagsetEv() #1 comdat align 2 {
  ret ptr @_ZN16LogTagSetMappingILN6LogTag4typeE49ELS1_0ELS1_0ELS1_0ELS1_0ELS1_0EE7_tagsetE
}

; Function Attrs: mustprogress nounwind uwtable
define linkonce_odr hidden void @_ZN22SequentialSubTasksDoneD2Ev(ptr noundef nonnull align 4 dereferenceable(8) %0) unnamed_addr #1 comdat align 2 {
  %2 = alloca ptr, align 8
  store ptr %0, ptr %2, align 8
  ret void
}

; Function Attrs: mustprogress nounwind uwtable
define linkonce_odr hidden noundef ptr @_Z25proper_unit_for_byte_sizem(i64 noundef %0) #1 comdat {
  %2 = alloca ptr, align 8
  %3 = alloca i64, align 8
  store i64 %0, ptr %3, align 8
  %4 = load i64, ptr %3, align 8
  %5 = icmp uge i64 %4, 107374182400
  br i1 %5, label %6, label %7

6:                                                ; preds = %1
  store ptr @.str.9, ptr %2, align 8
  br label %16

7:                                                ; preds = %1
  %8 = load i64, ptr %3, align 8
  %9 = icmp uge i64 %8, 104857600
  br i1 %9, label %10, label %11

10:                                               ; preds = %7
  store ptr @.str.10, ptr %2, align 8
  br label %16

11:                                               ; preds = %7
  %12 = load i64, ptr %3, align 8
  %13 = icmp uge i64 %12, 102400
  br i1 %13, label %14, label %15

14:                                               ; preds = %11
  store ptr @.str.11, ptr %2, align 8
  br label %16

15:                                               ; preds = %11
  store ptr @.str.12, ptr %2, align 8
  br label %16

16:                                               ; preds = %15, %14, %10, %6
  %17 = load ptr, ptr %2, align 8
  ret ptr %17
}

; Function Attrs: mustprogress nounwind uwtable
define linkonce_odr hidden noundef i64 @_Z24byte_size_in_proper_unitImET_S0_(i64 noundef %0) #1 comdat {
  %2 = alloca i64, align 8
  %3 = alloca i64, align 8
  store i64 %0, ptr %3, align 8
  %4 = load i64, ptr %3, align 8
  %5 = icmp uge i64 %4, 107374182400
  br i1 %5, label %6, label %9

6:                                                ; preds = %1
  %7 = load i64, ptr %3, align 8
  %8 = udiv i64 %7, 1073741824
  store i64 %8, ptr %2, align 8
  br label %23

9:                                                ; preds = %1
  %10 = load i64, ptr %3, align 8
  %11 = icmp uge i64 %10, 104857600
  br i1 %11, label %12, label %15

12:                                               ; preds = %9
  %13 = load i64, ptr %3, align 8
  %14 = udiv i64 %13, 1048576
  store i64 %14, ptr %2, align 8
  br label %23

15:                                               ; preds = %9
  %16 = load i64, ptr %3, align 8
  %17 = icmp uge i64 %16, 102400
  br i1 %17, label %18, label %21

18:                                               ; preds = %15
  %19 = load i64, ptr %3, align 8
  %20 = udiv i64 %19, 1024
  store i64 %20, ptr %2, align 8
  br label %23

21:                                               ; preds = %15
  %22 = load i64, ptr %3, align 8
  store i64 %22, ptr %2, align 8
  br label %23

23:                                               ; preds = %21, %18, %12, %6
  %24 = load i64, ptr %2, align 8
  ret i64 %24
}

; Function Attrs: mustprogress nounwind uwtable
define linkonce_odr hidden noundef zeroext i1 @_ZN7LogImplILN6LogTag4typeE49ELS1_0ELS1_0ELS1_0ELS1_0ELS1_0EE8is_levelEN8LogLevel4typeE(i32 noundef %0) #1 comdat align 2 {
  %2 = alloca i32, align 4
  store i32 %0, ptr %2, align 4
  %3 = call noundef nonnull align 8 dereferenceable(112) ptr @_ZN16LogTagSetMappingILN6LogTag4typeE49ELS1_0ELS1_0ELS1_0ELS1_0ELS1_0EE6tagsetEv()
  %4 = load i32, ptr %2, align 4
  %5 = call noundef zeroext i1 @_ZNK9LogTagSet8is_levelEN8LogLevel4typeE(ptr noundef nonnull align 8 dereferenceable(112) %3, i32 noundef %4)
  ret i1 %5
}

; Function Attrs: mustprogress nounwind uwtable
define linkonce_odr hidden void @_ZN22SequentialSubTasksDoneC2Ej(ptr noundef nonnull align 4 dereferenceable(8) %0, i32 noundef %1) unnamed_addr #1 comdat align 2 {
  %3 = alloca ptr, align 8
  %4 = alloca i32, align 4
  store ptr %0, ptr %3, align 8
  store i32 %1, ptr %4, align 4
  %5 = load ptr, ptr %3, align 8
  %6 = getelementptr inbounds %class.SequentialSubTasksDone, ptr %5, i32 0, i32 0
  %7 = load i32, ptr %4, align 4
  store i32 %7, ptr %6, align 4
  %8 = getelementptr inbounds %class.SequentialSubTasksDone, ptr %5, i32 0, i32 1
  store volatile i32 0, ptr %8, align 4
  ret void
}

; Function Attrs: mustprogress nounwind uwtable
define linkonce_odr hidden noundef i32 @_ZNK17PreservedMarksSet3numEv(ptr noundef nonnull align 8 dereferenceable(16) %0) #1 comdat align 2 {
  %2 = alloca ptr, align 8
  store ptr %0, ptr %2, align 8
  %3 = load ptr, ptr %2, align 8
  %4 = getelementptr inbounds %class.PreservedMarksSet, ptr %3, i32 0, i32 1
  %5 = load i32, ptr %4, align 4
  ret i32 %5
}

; Function Attrs: mustprogress nounwind uwtable
define linkonce_odr hidden void @_ZN10WorkerTaskC2EPKc(ptr noundef nonnull align 8 dereferenceable(20) %0, ptr noundef %1) unnamed_addr #1 comdat align 2 {
  %3 = alloca ptr, align 8
  %4 = alloca ptr, align 8
  store ptr %0, ptr %3, align 8
  store ptr %1, ptr %4, align 8
  %5 = load ptr, ptr %3, align 8
  store ptr getelementptr inbounds inrange(-16, 8) ({ [3 x ptr] }, ptr @_ZTV10WorkerTask, i32 0, i32 0, i32 2), ptr %5, align 8
  %6 = getelementptr inbounds %class.WorkerTask, ptr %5, i32 0, i32 1
  %7 = load ptr, ptr %4, align 8
  store ptr %7, ptr %6, align 8
  %8 = getelementptr inbounds %class.WorkerTask, ptr %5, i32 0, i32 2
  %9 = call noundef i32 @_ZN4GCId20current_or_undefinedEv()
  store i32 %9, ptr %8, align 8
  ret void
}

; Function Attrs: mustprogress nounwind uwtable
define linkonce_odr hidden void @_ZN17PreservedMarksSet12assert_emptyEv(ptr noundef nonnull align 8 dereferenceable(16) %0) #1 comdat align 2 {
  %2 = alloca ptr, align 8
  store ptr %0, ptr %2, align 8
  ret void
}

; Function Attrs: mustprogress nounwind uwtable
define linkonce_odr hidden void @_ZN25RestorePreservedMarksTaskD2Ev(ptr noundef nonnull align 8 dereferenceable(48) %0) unnamed_addr #1 comdat align 2 {
  %2 = alloca ptr, align 8
  %3 = alloca i64, align 8
  store ptr %0, ptr %2, align 8
  %4 = load ptr, ptr %2, align 8
  store ptr getelementptr inbounds inrange(-16, 8) ({ [3 x ptr] }, ptr @_ZTV25RestorePreservedMarksTask, i32 0, i32 0, i32 2), ptr %4, align 8
  %5 = getelementptr inbounds %class.RestorePreservedMarksTask, ptr %4, i32 0, i32 3
  %6 = load volatile i64, ptr %5, align 8
  %7 = mul i64 %6, 16
  store i64 %7, ptr %3, align 8
  %8 = call noundef zeroext i1 @_ZN7LogImplILN6LogTag4typeE49ELS1_0ELS1_0ELS1_0ELS1_0ELS1_0EE8is_levelEN8LogLevel4typeE(i32 noundef 1)
  br i1 %8, label %10, label %9

9:                                                ; preds = %1
  br label %17

10:                                               ; preds = %1
  %11 = getelementptr inbounds %class.RestorePreservedMarksTask, ptr %4, i32 0, i32 3
  %12 = load volatile i64, ptr %11, align 8
  %13 = load i64, ptr %3, align 8
  %14 = call noundef i64 @_Z24byte_size_in_proper_unitImET_S0_(i64 noundef %13)
  %15 = load i64, ptr %3, align 8
  %16 = call noundef ptr @_Z25proper_unit_for_byte_sizem(i64 noundef %15)
  call void (ptr, ...) @_ZN7LogImplILN6LogTag4typeE49ELS1_0ELS1_0ELS1_0ELS1_0ELS1_0EE5writeILN8LogLevel4typeE1EEEvPKcz(ptr noundef @.str.8, i64 noundef %12, i64 noundef %14, ptr noundef %16)
  br label %17

17:                                               ; preds = %10, %9
  %18 = getelementptr inbounds %class.RestorePreservedMarksTask, ptr %4, i32 0, i32 2
  call void @_ZN22SequentialSubTasksDoneD2Ev(ptr noundef nonnull align 4 dereferenceable(8) %18) #5
  ret void
}

; Function Attrs: mustprogress nounwind uwtable
define linkonce_odr hidden void @_ZN25RestorePreservedMarksTaskC2EP17PreservedMarksSet(ptr noundef nonnull align 8 dereferenceable(48) %0, ptr noundef %1) unnamed_addr #1 comdat align 2 {
  %3 = alloca ptr, align 8
  %4 = alloca ptr, align 8
  store ptr %0, ptr %3, align 8
  store ptr %1, ptr %4, align 8
  %5 = load ptr, ptr %3, align 8
  call void @_ZN10WorkerTaskC2EPKc(ptr noundef nonnull align 8 dereferenceable(20) %5, ptr noundef @.str)
  store ptr getelementptr inbounds inrange(-16, 8) ({ [3 x ptr] }, ptr @_ZTV25RestorePreservedMarksTask, i32 0, i32 0, i32 2), ptr %5, align 8
  %6 = getelementptr inbounds %class.RestorePreservedMarksTask, ptr %5, i32 0, i32 1
  %7 = load ptr, ptr %4, align 8
  store ptr %7, ptr %6, align 8
  %8 = getelementptr inbounds %class.RestorePreservedMarksTask, ptr %5, i32 0, i32 2
  %9 = load ptr, ptr %4, align 8
  %10 = call noundef i32 @_ZNK17PreservedMarksSet3numEv(ptr noundef nonnull align 8 dereferenceable(16) %9)
  call void @_ZN22SequentialSubTasksDoneC2Ej(ptr noundef nonnull align 4 dereferenceable(8) %8, i32 noundef %10)
  %11 = getelementptr inbounds %class.RestorePreservedMarksTask, ptr %5, i32 0, i32 3
  store volatile i64 0, ptr %11, align 8
  ret void
}

; Function Attrs: mustprogress nounwind uwtable
define hidden void @_ZN17PreservedMarksSet7restoreEP13WorkerThreads(ptr noundef nonnull align 8 dereferenceable(16) %0, ptr noundef %1) #1 align 2 {
  %3 = alloca ptr, align 8
  %4 = alloca ptr, align 8
  %5 = alloca %class.RestorePreservedMarksTask, align 8
  store ptr %0, ptr %3, align 8
  store ptr %1, ptr %4, align 8
  %6 = load ptr, ptr %3, align 8
  call void @_ZN25RestorePreservedMarksTaskC2EP17PreservedMarksSet(ptr noundef nonnull align 8 dereferenceable(48) %5, ptr noundef %6)
  %7 = load ptr, ptr %4, align 8
  %8 = icmp eq ptr %7, null
  br i1 %8, label %9, label %10

9:                                                ; preds = %2
  call void @_ZN25RestorePreservedMarksTask4workEj(ptr noundef nonnull align 8 dereferenceable(48) %5, i32 noundef 0)
  br label %12

10:                                               ; preds = %2
  %11 = load ptr, ptr %4, align 8
  call void @_ZN13WorkerThreads8run_taskEP10WorkerTask(ptr noundef nonnull align 8 dereferenceable(120) %11, ptr noundef %5)
  br label %12

12:                                               ; preds = %10, %9
  call void @_ZN25RestorePreservedMarksTaskD2Ev(ptr noundef nonnull align 8 dereferenceable(48) %5) #5
  call void @_ZN17PreservedMarksSet12assert_emptyEv(ptr noundef nonnull align 8 dereferenceable(16) %6)
  ret void
}