; Function Attrs: mustprogress nounwind uwtable
define hidden void @_ZN17PreservedMarksSet7restoreEP13WorkerThreads(ptr noundef nonnull align 8 dereferenceable(16) %0, ptr noundef %1) local_unnamed_addr #0 align 2 {
  %3 = alloca %class.RestorePreservedMarksTask, align 8
  %4 = getelementptr inbounds i8, ptr %3, i64 8
  store ptr @.str, ptr %4, align 8
  %5 = getelementptr inbounds i8, ptr %3, i64 16
  %6 = tail call noundef i32 @_ZN4GCId20current_or_undefinedEv() #7
  store i32 %6, ptr %5, align 8
  store ptr getelementptr inbounds inrange(-16, 8) (i8, ptr @_ZTV25RestorePreservedMarksTask, i64 16), ptr %3, align 8
  %7 = getelementptr inbounds i8, ptr %3, i64 24
  store ptr %0, ptr %7, align 8
  %8 = getelementptr inbounds i8, ptr %3, i64 32
  %9 = getelementptr inbounds i8, ptr %0, i64 4
  %10 = load i32, ptr %9, align 4
  store i32 %10, ptr %8, align 8
  %11 = getelementptr inbounds i8, ptr %3, i64 36
  store volatile i32 0, ptr %11, align 4
  %12 = getelementptr inbounds i8, ptr %3, i64 40
  store volatile i64 0, ptr %12, align 8
  %13 = icmp eq ptr %1, null
  br i1 %13, label %14, label %15

14:                                               ; preds = %2
  call void @_ZN25RestorePreservedMarksTask4workEj(ptr noundef nonnull align 8 dereferenceable(48) %3, i32 noundef 0)
  br label %16

15:                                               ; preds = %2
  call void @_ZN13WorkerThreads8run_taskEP10WorkerTask(ptr noundef nonnull align 8 dereferenceable(120) %1, ptr noundef nonnull %3) #7
  br label %16

16:                                               ; preds = %15, %14
  store ptr getelementptr inbounds inrange(-16, 8) (i8, ptr @_ZTV25RestorePreservedMarksTask, i64 16), ptr %3, align 8
  %17 = load volatile i64, ptr %12, align 8
  %18 = load volatile ptr, ptr getelementptr inbounds (i8, ptr @_ZN16LogTagSetMappingILN6LogTag4typeE49ELS1_0ELS1_0ELS1_0ELS1_0ELS1_0EE7_tagsetE, i64 48), align 8
  %.not.i = icmp eq ptr %18, null
  br i1 %.not.i, label %_ZN25RestorePreservedMarksTaskD2Ev.exit, label %19

19:                                               ; preds = %16
  %20 = shl i64 %17, 4
  %21 = load volatile i64, ptr %12, align 8
  %22 = icmp ugt i64 %20, 107374182399
  br i1 %22, label %_Z24byte_size_in_proper_unitImET_S0_.exit.i, label %23

23:                                               ; preds = %19
  %24 = icmp ugt i64 %20, 104857599
  br i1 %24, label %.thread.i, label %27

.thread.i:                                        ; preds = %23
  %25 = lshr i64 %20, 20
  br label %_Z25proper_unit_for_byte_sizem.exit.i

_Z24byte_size_in_proper_unitImET_S0_.exit.i:      ; preds = %19
  %26 = lshr i64 %20, 30
  br label %_Z25proper_unit_for_byte_sizem.exit.i

27:                                               ; preds = %23
  %28 = icmp ugt i64 %20, 102399
  %29 = lshr i64 %20, 10
  %spec.select.i.i = select i1 %28, i64 %29, i64 %20
  %.str.11..str.12.i.i = select i1 %28, ptr @.str.11, ptr @.str.12
  br label %_Z25proper_unit_for_byte_sizem.exit.i

_Z25proper_unit_for_byte_sizem.exit.i:            ; preds = %27, %_Z24byte_size_in_proper_unitImET_S0_.exit.i, %.thread.i
  %.0.i5.i = phi i64 [ %26, %_Z24byte_size_in_proper_unitImET_S0_.exit.i ], [ %spec.select.i.i, %27 ], [ %25, %.thread.i ]
  %.0.i2.i = phi ptr [ @.str.9, %_Z24byte_size_in_proper_unitImET_S0_.exit.i ], [ %.str.11..str.12.i.i, %27 ], [ @.str.10, %.thread.i ]
  call void (ptr, ...) @_ZN7LogImplILN6LogTag4typeE49ELS1_0ELS1_0ELS1_0ELS1_0ELS1_0EE5writeILN8LogLevel4typeE1EEEvPKcz(ptr noundef nonnull @.str.8, i64 noundef %21, i64 noundef %.0.i5.i, ptr noundef nonnull %.0.i2.i)
  br label %_ZN25RestorePreservedMarksTaskD2Ev.exit

_ZN25RestorePreservedMarksTaskD2Ev.exit:          ; preds = %16, %_Z25proper_unit_for_byte_sizem.exit.i
  ret void
}